; Function Attrs: mustprogress nofree norecurse nosync nounwind memory(argmem: readwrite) uwtable
define noundef i32 @_ZN8facebook5velox6crypto10MD5Context9FinishHexEPc(ptr nocapture noundef nonnull align 4 dereferenceable(88) %this, ptr nocapture noundef writeonly %out_digest) local_unnamed_addr #5 align 2 {
entry:
  %digest = alloca [16 x i8], align 16
  %bits.i = getelementptr inbounds i8, ptr %this, i64 16
  %0 = load i32, ptr %bits.i, align 4
  %shr.i = lshr i32 %0, 3
  %and.i = and i32 %shr.i, 63
  %in.i = getelementptr inbounds i8, ptr %this, i64 24
  %idx.ext.i = zext nneg i32 %and.i to i64
  %add.ptr.i = getelementptr inbounds i8, ptr %in.i, i64 %idx.ext.i
  %incdec.ptr.i = getelementptr inbounds i8, ptr %add.ptr.i, i64 1
  store i8 -128, ptr %add.ptr.i, align 1
  %sub.i = xor i32 %and.i, 63
  %cmp.i = icmp ult i32 %sub.i, 8
  br i1 %cmp.i, label %if.then.i, label %if.else.i

if.then.i:                                        ; preds = %entry
  %conv.i = zext nneg i32 %sub.i to i64
  tail call void @llvm.memset.p0.i64(ptr nonnull align 1 %incdec.ptr.i, i8 0, i64 %conv.i, i1 false)
  tail call fastcc void @_ZN8facebook5velox6cryptoL12MD5TransformEPjPKj(ptr noundef nonnull %this, ptr noundef nonnull %in.i)
  tail call void @llvm.memset.p0.i64(ptr noundef nonnull align 4 dereferenceable(56) %in.i, i8 0, i64 56, i1 false)
  br label %_ZN8facebook5velox6crypto10MD5Context6FinishEPh.exit

if.else.i:                                        ; preds = %entry
  %sub9.i = sub nsw i32 55, %and.i
  %conv10.i = zext nneg i32 %sub9.i to i64
  tail call void @llvm.memset.p0.i64(ptr nonnull align 1 %incdec.ptr.i, i8 0, i64 %conv10.i, i1 false)
  br label %_ZN8facebook5velox6crypto10MD5Context6FinishEPh.exit

_ZN8facebook5velox6crypto10MD5Context6FinishEPh.exit: ; preds = %if.then.i, %if.else.i
  %arrayidx17.i = getelementptr inbounds i8, ptr %this, i64 80
  %1 = load <2 x i32>, ptr %bits.i, align 4
  store <2 x i32> %1, ptr %arrayidx17.i, align 4
  tail call fastcc void @_ZN8facebook5velox6cryptoL12MD5TransformEPjPKj(ptr noundef nonnull %this, ptr noundef nonnull %in.i)
  call void @llvm.memcpy.p0.p0.i64(ptr noundef nonnull align 16 dereferenceable(16) %digest, ptr noundef nonnull align 4 dereferenceable(16) %this, i64 16, i1 false)
  br label %for.body.i

for.body.i:                                       ; preds = %for.body.i, %_ZN8facebook5velox6crypto10MD5Context6FinishEPh.exit
  %indvars.iv8.i = phi i64 [ 0, %_ZN8facebook5velox6crypto10MD5Context6FinishEPh.exit ], [ %indvars.iv.next9.i, %for.body.i ]
  %indvars.iv.i = phi i64 [ 0, %_ZN8facebook5velox6crypto10MD5Context6FinishEPh.exit ], [ %indvars.iv.next.i, %for.body.i ]
  %arrayidx.i = getelementptr inbounds i8, ptr %digest, i64 %indvars.iv.i
  %2 = load i8, ptr %arrayidx.i, align 1
  %conv1.i = zext i8 %2 to i32
  %shr.i1 = lshr i32 %conv1.i, 4
  %idxprom2.i = zext nneg i32 %shr.i1 to i64
  %arrayidx3.i = getelementptr inbounds [17 x i8], ptr @_ZZN8facebook5velox6crypto10MD5Context14DigestToBase16EPKhPcE9HEX_CODES, i64 0, i64 %idxprom2.i
  %3 = load i8, ptr %arrayidx3.i, align 1
  %4 = or disjoint i64 %indvars.iv8.i, 1
  %arrayidx5.i = getelementptr inbounds i8, ptr %out_digest, i64 %indvars.iv8.i
  store i8 %3, ptr %arrayidx5.i, align 1
  %and6.i = and i32 %conv1.i, 15
  %idxprom7.i = zext nneg i32 %and6.i to i64
  %arrayidx8.i = getelementptr inbounds [17 x i8], ptr @_ZZN8facebook5velox6crypto10MD5Context14DigestToBase16EPKhPcE9HEX_CODES, i64 0, i64 %idxprom7.i
  %5 = load i8, ptr %arrayidx8.i, align 1
  %indvars.iv.next9.i = add nuw nsw i64 %indvars.iv8.i, 2
  %arrayidx11.i = getelementptr inbounds i8, ptr %out_digest, i64 %4
  store i8 %5, ptr %arrayidx11.i, align 1
  %indvars.iv.next.i = add nuw nsw i64 %indvars.iv.i, 1
  %exitcond.not.i = icmp eq i64 %indvars.iv.next.i, 16
  br i1 %exitcond.not.i, label %_ZN8facebook5velox6crypto10MD5Context14DigestToBase16EPKhPc.exit, label %for.body.i, !llvm.loop !6

_ZN8facebook5velox6crypto10MD5Context14DigestToBase16EPKhPc.exit: ; preds = %for.body.i
  ret i32 32
}